Certificate:
    Data:
        Version: 3 (0x2)
        Serial Number:
            75:b6:7e:48:8d:6e:53:f5:18:28:25:63:03:f2:73:4e
        Signature Algorithm: sha256WithRSAEncryption
        Issuer: CN=Test Root CA
        Validity
            Not Before: Mar 30 08:50:51 2022 GMT
            Not After : Mar 27 08:50:51 2032 GMT
        Subject: CN=Test Root CA
        Subject Public Key Info:
            Public Key Algorithm: rsaEncryption
                RSA Public-Key: (2048 bit)
                Modulus:
                    00:d7:7a:cd:ec:5d:f5:03:9c:42:62:d8:a0:fa:56:
                    a5:4d:e7:f9:bb:5a:fb:dd:38:a7:de:c7:58:8b:d5:
                    66:2f:b5:f0:71:4d:e2:2f:71:fc:4f:e3:e3:49:99:
                    ba:b2:c9:1a:0a:81:90:9c:de:01:c3:5a:7a:46:21:
                    2f:cb:9b:dd:6f:73:82:1d:f0:9c:30:50:f5:04:cc:
                    cb:35:6b:ca:4e:e1:ee:8d:d2:c3:26:e6:57:36:fb:
                    72:01:85:49:eb:3a:2f:6f:e4:3d:73:9a:e7:64:bd:
                    74:39:5c:e2:39:23:45:dd:32:44:dd:19:bb:ec:5e:
                    f7:ee:e7:9e:c2:ec:9e:eb:15:e0:c5:7a:7c:29:5f:
                    45:cd:51:90:f5:73:1e:2c:7b:f4:0f:01:ac:e0:54:
                    9a:78:f5:00:9d:db:91:3d:d1:c2:a0:1a:e3:9d:6f:
                    f4:ae:09:7d:40:f6:f7:e2:1f:20:3d:f9:e6:b2:77:
                    ef:3e:67:e3:35:ac:2d:8a:ae:f8:4b:a6:89:e7:07:
                    95:e2:2c:7a:59:62:ec:62:a5:67:ba:e5:23:6c:f7:
                    1b:17:d2:c2:15:b6:98:48:e2:bf:45:72:e9:1f:ff:
                    33:e8:27:0a:1a:ab:05:98:be:46:59:a0:11:0c:0a:
                    58:c5:b4:12:e5:cf:d4:f1:db:5d:81:8a:63:ed:30:
                    02:ab
                Exponent: 65537 (0x10001)
        X509v3 extensions:
            X509v3 Basic Constraints: critical
                CA:TRUE
            X509v3 Key Usage: critical
                Certificate Sign, CRL Sign
            X509v3 Subject Key Identifier: 
                5A:A9:B7:F3:3B:69:B8:4B:F8:DB:A8:B3:1E:0B:F1:BB:C0:07:BE:B0
    Signature Algorithm: sha256WithRSAEncryption
         1a:bd:7b:71:a4:a2:5b:ff:0c:57:5a:88:19:fa:af:7e:ea:42:
         2c:2b:a1:10:49:f8:7c:94:7c:12:f2:fe:52:fe:ec:d1:b5:00:
         6f:88:11:24:86:6a:61:7d:bb:30:6e:39:fa:02:a3:5a:32:e9:
         ae:39:40:99:a5:14:84:12:0c:a1:1f:4c:3a:94:54:b5:e4:b3:
         e6:9d:9c:0b:36:a9:7d:84:2e:89:55:5e:88:94:01:ac:fc:1e:
         0e:45:63:c1:aa:88:ce:1c:ef:14:13:fd:60:e3:6c:2b:c5:67:
         ef:cb:8e:fa:a9:04:4c:1e:f3:c4:55:f1:45:4b:54:4c:54:48:
         41:95:64:a0:8c:05:a9:a7:10:d9:b7:2d:0d:bc:a8:19:6b:a3:
         7d:66:33:97:57:95:1c:45:36:6d:b5:50:6b:f2:c1:00:75:9d:
         25:3e:d1:29:ee:3e:03:6d:70:d2:47:9a:f7:1d:dc:df:67:ec:
         55:0d:73:8e:61:de:79:a0:14:84:c1:ee:e1:66:7d:b0:1d:84:
         17:eb:7c:31:4e:3f:b1:e3:52:01:ce:df:f8:02:8b:a2:2a:1a:
         a9:1e:01:6b:66:5e:6c:9a:d3:21:b8:d9:17:b5:77:81:75:ea:
         00:0b:75:ce:25:09:09:c8:f3:d7:83:b3:76:b8:ef:4d:11:49:
         66:44:f2:59
-----BEGIN CERTIFICATE-----
MIIC+jCCAeKgAwIBAgIQdbZ+SI1uU/UYKCVjA/JzTjANBgkqhkiG9w0BAQsFADAX
MRUwEwYDVQQDDAxUZXN0IFJvb3QgQ0EwHhcNMjIwMzMwMDg1MDUxWhcNMzIwMzI3
MDg1MDUxWjAXMRUwEwYDVQQDDAxUZXN0IFJvb3QgQ0EwggEiMA0GCSqGSIb3DQEB
AQUAA4IBDwAwggEKAoIBAQDXes3sXfUDnEJi2KD6VqVN5/m7WvvdOKfex1iL1WYv
tfBxTeIvcfxP4+NJmbqyyRoKgZCc3gHDWnpGIS/Lm91vc4Id8JwwUPUEzMs1a8pO
4e6N0sMm5lc2+3IBhUnrOi9v5D1zmudkvXQ5XOI5I0XdMkTdGbvsXvfu557C7J7r
FeDFenwpX0XNUZD1cx4se/QPAazgVJp49QCd25E90cKgGuOdb/SuCX1A9vfiHyA9
+eayd+8+Z+M1rC2KrvhLponnB5XiLHpZYuxipWe65SNs9xsX0sIVtphI4r9Fcukf
/zPoJwoaqwWYvkZZoBEMCljFtBLlz9Tx212BimPtMAKrAgMBAAGjQjBAMA8GA1Ud
EwEB/wQFMAMBAf8wDgYDVR0PAQH/BAQDAgEGMB0GA1UdDgQWBBRaqbfzO2m4S/jb
qLMeC/G7wAe+sDANBgkqhkiG9w0BAQsFAAOCAQEAGr17caSiW/8MV1qIGfqvfupC
LCuhEEn4fJR8EvL+Uv7s0bUAb4gRJIZqYX27MG45+gKjWjLprjlAmaUUhBIMoR9M
OpRUteSz5p2cCzapfYQuiVVeiJQBrPweDkVjwaqIzhzvFBP9YONsK8Vn78uO+qkE
TB7zxFXxRUtUTFRIQZVkoIwFqacQ2bctDbyoGWujfWYzl1eVHEU2bbVQa/LBAHWd
JT7RKe4+A21w0kea9x3c32fsVQ1zjmHeeaAUhMHu4WZ9sB2EF+t8MU4/seNSAc7f
+AKLoioaqR4Ba2ZebJrTIbjZF7V3gXXqAAt1ziUJCcjz14OzdrjvTRFJZkTyWQ==
-----END CERTIFICATE-----
